target datalayout = "e-m:e-p270:32:32-p271:32:32-p272:64:64-i64:64-i128:128-f80:128-n8:16:32:64-S128"
target triple = "x86_64-pc-linux-gnu"

; Function Attrs: nounwind uwtable
define internal i32 @pg_euctw2wchar_with_len(ptr noundef %0, ptr noundef %1, i32 noundef %2) #1 {
  %4 = alloca ptr, align 8
  %5 = alloca ptr, align 8
  %6 = alloca i32, align 4
  %7 = alloca i32, align 4
  store ptr %0, ptr %4, align 8
  store ptr %1, ptr %5, align 8
  store i32 %2, ptr %6, align 4
  call void @llvm.lifetime.start.p0(i64 4, ptr %7) #7
  store i32 0, ptr %7, align 4
  br label %8

8:                                                ; preds = %115, %3
  %9 = load i32, ptr %6, align 4
  %10 = icmp sgt i32 %9, 0
  br i1 %10, label %11, label %16

11:                                               ; preds = %8
  %12 = load ptr, ptr %4, align 8
  %13 = load i8, ptr %12, align 1
  %14 = zext i8 %13 to i32
  %15 = icmp ne i32 %14, 0
  br label %16

16:                                               ; preds = %11, %8
  %17 = phi i1 [ false, %8 ], [ %15, %11 ]
  br i1 %17, label %18, label %120

18:                                               ; preds = %16
  %19 = load ptr, ptr %4, align 8
  %20 = load i8, ptr %19, align 1
  %21 = zext i8 %20 to i32
  %22 = icmp eq i32 %21, 142
  br i1 %22, label %23, label %53

23:                                               ; preds = %18
  %24 = load i32, ptr %6, align 4
  %25 = icmp sge i32 %24, 4
  br i1 %25, label %26, label %53

26:                                               ; preds = %23
  %27 = load ptr, ptr %4, align 8
  %28 = getelementptr inbounds nuw i8, ptr %27, i32 1
  store ptr %28, ptr %4, align 8
  %29 = load ptr, ptr %4, align 8
  %30 = getelementptr inbounds nuw i8, ptr %29, i32 1
  store ptr %30, ptr %4, align 8
  %31 = load i8, ptr %29, align 1
  %32 = zext i8 %31 to i32
  %33 = shl i32 %32, 16
  %34 = or i32 -1912602624, %33
  %35 = load ptr, ptr %5, align 8
  store i32 %34, ptr %35, align 4
  %36 = load ptr, ptr %4, align 8
  %37 = getelementptr inbounds nuw i8, ptr %36, i32 1
  store ptr %37, ptr %4, align 8
  %38 = load i8, ptr %36, align 1
  %39 = zext i8 %38 to i32
  %40 = shl i32 %39, 8
  %41 = load ptr, ptr %5, align 8
  %42 = load i32, ptr %41, align 4
  %43 = or i32 %42, %40
  store i32 %43, ptr %41, align 4
  %44 = load ptr, ptr %4, align 8
  %45 = getelementptr inbounds nuw i8, ptr %44, i32 1
  store ptr %45, ptr %4, align 8
  %46 = load i8, ptr %44, align 1
  %47 = zext i8 %46 to i32
  %48 = load ptr, ptr %5, align 8
  %49 = load i32, ptr %48, align 4
  %50 = or i32 %49, %47
  store i32 %50, ptr %48, align 4
  %51 = load i32, ptr %6, align 4
  %52 = sub i32 %51, 4
  store i32 %52, ptr %6, align 4
  br label %115

53:                                               ; preds = %23, %18
  %54 = load ptr, ptr %4, align 8
  %55 = load i8, ptr %54, align 1
  %56 = zext i8 %55 to i32
  %57 = icmp eq i32 %56, 143
  br i1 %57, label %58, label %80

58:                                               ; preds = %53
  %59 = load i32, ptr %6, align 4
  %60 = icmp sge i32 %59, 3
  br i1 %60, label %61, label %80

61:                                               ; preds = %58
  %62 = load ptr, ptr %4, align 8
  %63 = getelementptr inbounds nuw i8, ptr %62, i32 1
  store ptr %63, ptr %4, align 8
  %64 = load ptr, ptr %4, align 8
  %65 = getelementptr inbounds nuw i8, ptr %64, i32 1
  store ptr %65, ptr %4, align 8
  %66 = load i8, ptr %64, align 1
  %67 = zext i8 %66 to i32
  %68 = shl i32 %67, 8
  %69 = or i32 9371648, %68
  %70 = load ptr, ptr %5, align 8
  store i32 %69, ptr %70, align 4
  %71 = load ptr, ptr %4, align 8
  %72 = getelementptr inbounds nuw i8, ptr %71, i32 1
  store ptr %72, ptr %4, align 8
  %73 = load i8, ptr %71, align 1
  %74 = zext i8 %73 to i32
  %75 = load ptr, ptr %5, align 8
  %76 = load i32, ptr %75, align 4
  %77 = or i32 %76, %74
  store i32 %77, ptr %75, align 4
  %78 = load i32, ptr %6, align 4
  %79 = sub i32 %78, 3
  store i32 %79, ptr %6, align 4
  br label %114

80:                                               ; preds = %58, %53
  %81 = load ptr, ptr %4, align 8
  %82 = load i8, ptr %81, align 1
  %83 = zext i8 %82 to i32
  %84 = and i32 %83, 128
  %85 = icmp ne i32 %84, 0
  br i1 %85, label %86, label %105

86:                                               ; preds = %80
  %87 = load i32, ptr %6, align 4
  %88 = icmp sge i32 %87, 2
  br i1 %88, label %89, label %105

89:                                               ; preds = %86
  %90 = load ptr, ptr %4, align 8
  %91 = getelementptr inbounds nuw i8, ptr %90, i32 1
  store ptr %91, ptr %4, align 8
  %92 = load i8, ptr %90, align 1
  %93 = zext i8 %92 to i32
  %94 = shl i32 %93, 8
  %95 = load ptr, ptr %5, align 8
  store i32 %94, ptr %95, align 4
  %96 = load ptr, ptr %4, align 8
  %97 = getelementptr inbounds nuw i8, ptr %96, i32 1
  store ptr %97, ptr %4, align 8
  %98 = load i8, ptr %96, align 1
  %99 = zext i8 %98 to i32
  %100 = load ptr, ptr %5, align 8
  %101 = load i32, ptr %100, align 4
  %102 = or i32 %101, %99
  store i32 %102, ptr %100, align 4
  %103 = load i32, ptr %6, align 4
  %104 = sub i32 %103, 2
  store i32 %104, ptr %6, align 4
  br label %113

105:                                              ; preds = %86, %80
  %106 = load ptr, ptr %4, align 8
  %107 = getelementptr inbounds nuw i8, ptr %106, i32 1
  store ptr %107, ptr %4, align 8
  %108 = load i8, ptr %106, align 1
  %109 = zext i8 %108 to i32
  %110 = load ptr, ptr %5, align 8
  store i32 %109, ptr %110, align 4
  %111 = load i32, ptr %6, align 4
  %112 = add i32 %111, -1
  store i32 %112, ptr %6, align 4
  br label %113

113:                                              ; preds = %105, %89
  br label %114

114:                                              ; preds = %113, %61
  br label %115

115:                                              ; preds = %114, %26
  %116 = load ptr, ptr %5, align 8
  %117 = getelementptr inbounds nuw i32, ptr %116, i32 1
  store ptr %117, ptr %5, align 8
  %118 = load i32, ptr %7, align 4
  %119 = add i32 %118, 1
  store i32 %119, ptr %7, align 4
  br label %8, !llvm.loop !11

120:                                              ; preds = %16
  %121 = load ptr, ptr %5, align 8
  store i32 0, ptr %121, align 4
  %122 = load i32, ptr %7, align 4
  call void @llvm.lifetime.end.p0(i64 4, ptr %7) #7
  ret i32 %122
}