; Function Attrs: nofree norecurse nosync nounwind memory(argmem: readwrite) uwtable
define internal i32 @pg_euctw2wchar_with_len(ptr noundef readonly captures(none) %0, ptr noundef writeonly captures(none) %1, i32 noundef %2) #2 {
  %4 = icmp sgt i32 %2, 0
  br i1 %4, label %.lr.ph, label %.critedge

.lr.ph:                                           ; preds = %3, %50
  %.046 = phi i32 [ %53, %50 ], [ 0, %3 ]
  %.03845 = phi i32 [ %51, %50 ], [ %2, %3 ]
  %.03944 = phi ptr [ %52, %50 ], [ %1, %3 ]
  %.04043 = phi ptr [ %.141, %50 ], [ %0, %3 ]
  %5 = load i8, ptr %.04043, align 1
  %6 = zext i8 %5 to i32
  %.not = icmp eq i8 %5, 0
  br i1 %.not, label %.critedge, label %7

7:                                                ; preds = %.lr.ph
  %8 = icmp eq i8 %5, -114
  %9 = icmp samesign ugt i32 %.03845, 3
  %or.cond = and i1 %9, %8
  br i1 %or.cond, label %10, label %26

10:                                               ; preds = %7
  %11 = getelementptr inbounds nuw i8, ptr %.04043, i64 1
  %12 = getelementptr inbounds nuw i8, ptr %.04043, i64 2
  %13 = load i8, ptr %11, align 1
  %14 = zext i8 %13 to i32
  %15 = shl nuw nsw i32 %14, 16
  %16 = or disjoint i32 %15, -1912602624
  store i32 %16, ptr %.03944, align 4
  %17 = getelementptr inbounds nuw i8, ptr %.04043, i64 3
  %18 = load i8, ptr %12, align 1
  %19 = zext i8 %18 to i32
  %20 = shl nuw nsw i32 %19, 8
  %21 = or disjoint i32 %20, %16
  store i32 %21, ptr %.03944, align 4
  %22 = getelementptr inbounds nuw i8, ptr %.04043, i64 4
  %23 = load i8, ptr %17, align 1
  %24 = zext i8 %23 to i32
  %25 = or disjoint i32 %21, %24
  br label %50

26:                                               ; preds = %7
  %27 = icmp eq i8 %5, -113
  %28 = icmp samesign ugt i32 %.03845, 2
  %or.cond3 = and i1 %28, %27
  br i1 %or.cond3, label %29, label %40

29:                                               ; preds = %26
  %30 = getelementptr inbounds nuw i8, ptr %.04043, i64 1
  %31 = getelementptr inbounds nuw i8, ptr %.04043, i64 2
  %32 = load i8, ptr %30, align 1
  %33 = zext i8 %32 to i32
  %34 = shl nuw nsw i32 %33, 8
  %35 = or disjoint i32 %34, 9371648
  store i32 %35, ptr %.03944, align 4
  %36 = getelementptr inbounds nuw i8, ptr %.04043, i64 3
  %37 = load i8, ptr %31, align 1
  %38 = zext i8 %37 to i32
  %39 = or disjoint i32 %35, %38
  br label %50

40:                                               ; preds = %26
  %41 = icmp slt i8 %5, 0
  %42 = icmp ne i32 %.03845, 1
  %or.cond5 = and i1 %42, %41
  %43 = getelementptr inbounds nuw i8, ptr %.04043, i64 1
  br i1 %or.cond5, label %44, label %50

44:                                               ; preds = %40
  %45 = shl nuw nsw i32 %6, 8
  store i32 %45, ptr %.03944, align 4
  %46 = getelementptr inbounds nuw i8, ptr %.04043, i64 2
  %47 = load i8, ptr %43, align 1
  %48 = zext i8 %47 to i32
  %49 = or disjoint i32 %45, %48
  br label %50

50:                                               ; preds = %40, %29, %44, %10
  %.sink51 = phi i32 [ %39, %29 ], [ %49, %44 ], [ %25, %10 ], [ %6, %40 ]
  %.sink = phi i32 [ -3, %29 ], [ -2, %44 ], [ -4, %10 ], [ -1, %40 ]
  %.141 = phi ptr [ %36, %29 ], [ %46, %44 ], [ %22, %10 ], [ %43, %40 ]
  store i32 %.sink51, ptr %.03944, align 4
  %51 = add nsw i32 %.03845, %.sink
  %52 = getelementptr inbounds nuw i8, ptr %.03944, i64 4
  %53 = add i32 %.046, 1
  %54 = icmp sgt i32 %51, 0
  br i1 %54, label %.lr.ph, label %.critedge, !llvm.loop !10

.critedge:                                        ; preds = %.lr.ph, %50, %3
  %.039.lcssa = phi ptr [ %1, %3 ], [ %52, %50 ], [ %.03944, %.lr.ph ]
  %.0.lcssa = phi i32 [ 0, %3 ], [ %53, %50 ], [ %.046, %.lr.ph ]
  store i32 0, ptr %.039.lcssa, align 4
  ret i32 %.0.lcssa
}